target datalayout = "e-m:e-p270:32:32-p271:32:32-p272:64:64-i64:64-i128:128-f80:128-n8:16:32:64-S128"
target triple = "x86_64-pc-linux-gnu"

; Function Attrs: nounwind uwtable
define i32 @wolfSSL_CertManagerVerifyBuffer(ptr noundef %0, ptr noundef %1, i64 noundef %2, i32 noundef %3) #0 {
  %5 = alloca ptr, align 8
  %6 = alloca ptr, align 8
  %7 = alloca i64, align 8
  %8 = alloca i32, align 4
  %9 = alloca i32, align 4
  store ptr %0, ptr %5, align 8, !tbaa !9
  store ptr %1, ptr %6, align 8, !tbaa !21
  store i64 %2, ptr %7, align 8, !tbaa !22
  store i32 %3, ptr %8, align 4, !tbaa !7
  call void @llvm.lifetime.start.p0(i64 4, ptr %9) #9
  br label %10

10:                                               ; preds = %4
  br label %11

11:                                               ; preds = %10
  br label %12

12:                                               ; preds = %11
  %13 = load ptr, ptr %5, align 8, !tbaa !9
  %14 = icmp eq ptr %13, null
  br i1 %14, label %21, label %15

15:                                               ; preds = %12
  %16 = load ptr, ptr %6, align 8, !tbaa !21
  %17 = icmp eq ptr %16, null
  br i1 %17, label %21, label %18

18:                                               ; preds = %15
  %19 = load i64, ptr %7, align 8, !tbaa !22
  %20 = icmp sle i64 %19, 0
  br i1 %20, label %21, label %22

21:                                               ; preds = %18, %15, %12
  store i32 -173, ptr %9, align 4, !tbaa !7
  br label %36

22:                                               ; preds = %18
  %23 = load i32, ptr %8, align 4, !tbaa !7
  %24 = icmp ne i32 %23, 2
  br i1 %24, label %25, label %29

25:                                               ; preds = %22
  %26 = load i32, ptr %8, align 4, !tbaa !7
  %27 = icmp ne i32 %26, 1
  br i1 %27, label %28, label %29

28:                                               ; preds = %25
  store i32 -462, ptr %9, align 4, !tbaa !7
  br label %35

29:                                               ; preds = %25, %22
  %30 = load ptr, ptr %5, align 8, !tbaa !9
  %31 = load ptr, ptr %6, align 8, !tbaa !21
  %32 = load i64, ptr %7, align 8, !tbaa !22
  %33 = load i32, ptr %8, align 4, !tbaa !7
  %34 = call i32 @CM_VerifyBuffer_ex(ptr noundef %30, ptr noundef %31, i64 noundef %32, i32 noundef %33, i32 noundef 0)
  store i32 %34, ptr %9, align 4, !tbaa !7
  br label %35

35:                                               ; preds = %29, %28
  br label %36

36:                                               ; preds = %35, %21
  %37 = load i32, ptr %9, align 4, !tbaa !7
  call void @llvm.lifetime.end.p0(i64 4, ptr %9) #9
  ret i32 %37
}