; Function Attrs: nounwind uwtable
define range(i32 1, 0) i32 @wolfSSL_CertManagerVerifyBuffer(ptr noundef %0, ptr noundef %1, i64 noundef %2, i32 noundef %3) local_unnamed_addr #0 {
  %5 = icmp eq ptr %0, null
  %6 = icmp eq ptr %1, null
  %or.cond = or i1 %5, %6
  %7 = icmp slt i64 %2, 1
  %or.cond3 = or i1 %or.cond, %7
  br i1 %or.cond3, label %12, label %8

8:                                                ; preds = %4
  %9 = add i32 %3, -3
  %or.cond5 = icmp ult i32 %9, -2
  br i1 %or.cond5, label %12, label %10

10:                                               ; preds = %8
  %11 = tail call i32 @CM_VerifyBuffer_ex(ptr noundef nonnull %0, ptr noundef nonnull %1, i64 noundef %2, i32 noundef %3, i32 noundef 0)
  br label %12

12:                                               ; preds = %8, %4, %10
  %.0 = phi i32 [ %11, %10 ], [ -173, %4 ], [ -462, %8 ]
  ret i32 %.0
}